target datalayout = "e-m:e-p270:32:32-p271:32:32-p272:64:64-i64:64-i128:128-f80:128-n8:16:32:64-S128"
target triple = "x86_64-pc-linux-gnu"

%class.outputStream = type { ptr, i32, i8, i32, i64, %class.TimeStamp, ptr, i64 }
%class.TimeStamp = type { i64 }

; Function Attrs: mustprogress nounwind uwtable
define hidden noundef zeroext i1 @_ZN12outputStream15update_positionEPKcm(ptr noundef nonnull align 8 dereferenceable(56) %0, ptr noundef %1, i64 noundef %2) #1 align 2 {
  %4 = alloca ptr, align 8
  %5 = alloca ptr, align 8
  %6 = alloca i64, align 8
  %7 = alloca i8, align 1
  %8 = alloca i64, align 8
  %9 = alloca i8, align 1
  %10 = alloca i32, align 4
  store ptr %0, ptr %4, align 8
  store ptr %1, ptr %5, align 8
  store i64 %2, ptr %6, align 8
  %11 = load ptr, ptr %4, align 8
  store i8 0, ptr %7, align 1
  store i64 0, ptr %8, align 8
  br label %12

12:                                               ; preds = %58, %3
  %13 = load i64, ptr %8, align 8
  %14 = load i64, ptr %6, align 8
  %15 = icmp ult i64 %13, %14
  br i1 %15, label %16, label %61

16:                                               ; preds = %12
  %17 = load ptr, ptr %5, align 8
  %18 = load i64, ptr %8, align 8
  %19 = getelementptr inbounds i8, ptr %17, i64 %18
  %20 = load i8, ptr %19, align 1
  store i8 %20, ptr %9, align 1
  %21 = load i8, ptr %9, align 1
  %22 = sext i8 %21 to i32
  %23 = icmp eq i32 %22, 10
  br i1 %23, label %24, label %33

24:                                               ; preds = %16
  store i8 1, ptr %7, align 1
  %25 = getelementptr inbounds %class.outputStream, ptr %11, i32 0, i32 3
  %26 = load i32, ptr %25, align 8
  %27 = add nsw i32 %26, 1
  %28 = sext i32 %27 to i64
  %29 = getelementptr inbounds %class.outputStream, ptr %11, i32 0, i32 4
  %30 = load i64, ptr %29, align 8
  %31 = add i64 %30, %28
  store i64 %31, ptr %29, align 8
  %32 = getelementptr inbounds %class.outputStream, ptr %11, i32 0, i32 3
  store i32 0, ptr %32, align 8
  br label %57

33:                                               ; preds = %16
  %34 = load i8, ptr %9, align 1
  %35 = sext i8 %34 to i32
  %36 = icmp eq i32 %35, 9
  br i1 %36, label %37, label %52

37:                                               ; preds = %33
  %38 = getelementptr inbounds %class.outputStream, ptr %11, i32 0, i32 3
  %39 = load i32, ptr %38, align 8
  %40 = and i32 %39, 7
  %41 = sub nsw i32 8, %40
  store i32 %41, ptr %10, align 4
  %42 = load i32, ptr %10, align 4
  %43 = getelementptr inbounds %class.outputStream, ptr %11, i32 0, i32 3
  %44 = load i32, ptr %43, align 8
  %45 = add nsw i32 %44, %42
  store i32 %45, ptr %43, align 8
  %46 = load i32, ptr %10, align 4
  %47 = sub nsw i32 %46, 1
  %48 = sext i32 %47 to i64
  %49 = getelementptr inbounds %class.outputStream, ptr %11, i32 0, i32 4
  %50 = load i64, ptr %49, align 8
  %51 = sub i64 %50, %48
  store i64 %51, ptr %49, align 8
  br label %56

52:                                               ; preds = %33
  %53 = getelementptr inbounds %class.outputStream, ptr %11, i32 0, i32 3
  %54 = load i32, ptr %53, align 8
  %55 = add nsw i32 %54, 1
  store i32 %55, ptr %53, align 8
  br label %56

56:                                               ; preds = %52, %37
  br label %57

57:                                               ; preds = %56, %24
  br label %58

58:                                               ; preds = %57
  %59 = load i64, ptr %8, align 8
  %60 = add i64 %59, 1
  store i64 %60, ptr %8, align 8
  br label %12, !llvm.loop !6

61:                                               ; preds = %12
  %62 = load i8, ptr %7, align 1
  %63 = trunc i8 %62 to i1
  ret i1 %63
}