; Function Attrs: mustprogress nofree norecurse nosync nounwind memory(argmem: readwrite) uwtable
define hidden noundef zeroext i1 @_ZN12outputStream15update_positionEPKcm(ptr nocapture noundef nonnull align 8 dereferenceable(56) %0, ptr nocapture noundef readonly %1, i64 noundef %2) local_unnamed_addr #2 align 2 {
  %.not = icmp eq i64 %2, 0
  br i1 %.not, label %._crit_edge, label %.lr.ph

.lr.ph:                                           ; preds = %3
  %4 = getelementptr inbounds i8, ptr %0, i64 16
  %5 = getelementptr inbounds i8, ptr %0, i64 24
  %.promoted = load i32, ptr %4, align 8
  %.promoted14 = load i64, ptr %5, align 8
  br label %6

6:                                                ; preds = %.lr.ph, %23
  %7 = phi i64 [ %.promoted14, %.lr.ph ], [ %24, %23 ]
  %8 = phi i32 [ %.promoted, %.lr.ph ], [ %25, %23 ]
  %.013 = phi i1 [ false, %.lr.ph ], [ %.1, %23 ]
  %.01012 = phi i64 [ 0, %.lr.ph ], [ %26, %23 ]
  %9 = getelementptr inbounds i8, ptr %1, i64 %.01012
  %10 = load i8, ptr %9, align 1
  switch i8 %10, label %21 [
    i8 10, label %11
    i8 9, label %15
  ]

11:                                               ; preds = %6
  %12 = add nsw i32 %8, 1
  %13 = sext i32 %12 to i64
  %14 = add i64 %7, %13
  store i64 %14, ptr %5, align 8
  store i32 0, ptr %4, align 8
  br label %23

15:                                               ; preds = %6
  %16 = and i32 %8, 7
  %reass.sub = and i32 %8, -8
  %17 = add i32 %reass.sub, 8
  store i32 %17, ptr %4, align 8
  %18 = xor i32 %16, 7
  %19 = zext nneg i32 %18 to i64
  %20 = sub i64 %7, %19
  store i64 %20, ptr %5, align 8
  br label %23

21:                                               ; preds = %6
  %22 = add nsw i32 %8, 1
  store i32 %22, ptr %4, align 8
  br label %23

23:                                               ; preds = %11, %21, %15
  %24 = phi i64 [ %14, %11 ], [ %20, %15 ], [ %7, %21 ]
  %25 = phi i32 [ 0, %11 ], [ %17, %15 ], [ %22, %21 ]
  %.1 = phi i1 [ true, %11 ], [ %.013, %15 ], [ %.013, %21 ]
  %26 = add nuw i64 %.01012, 1
  %exitcond.not = icmp eq i64 %26, %2
  br i1 %exitcond.not, label %._crit_edge, label %6, !llvm.loop !6

._crit_edge:                                      ; preds = %23, %3
  %.0.lcssa = phi i1 [ false, %3 ], [ %.1, %23 ]
  ret i1 %.0.lcssa
}